target datalayout = "e-m:e-p270:32:32-p271:32:32-p272:64:64-i64:64-i128:128-f80:128-n8:16:32:64-S128"
target triple = "x86_64-pc-linux-gnu"

%struct.decContext = type { i32, i32, i32, i32, i32, i32, i8 }

@.str = private unnamed_addr constant [18 x i8] c"Conversion syntax\00", align 1
@.str.1 = private unnamed_addr constant [17 x i8] c"Division by zero\00", align 1
@.str.2 = private unnamed_addr constant [20 x i8] c"Division impossible\00", align 1
@.str.3 = private unnamed_addr constant [19 x i8] c"Division undefined\00", align 1
@.str.4 = private unnamed_addr constant [8 x i8] c"Inexact\00", align 1
@.str.5 = private unnamed_addr constant [21 x i8] c"Insufficient storage\00", align 1
@.str.6 = private unnamed_addr constant [16 x i8] c"Invalid context\00", align 1
@.str.7 = private unnamed_addr constant [18 x i8] c"Invalid operation\00", align 1
@.str.8 = private unnamed_addr constant [9 x i8] c"Overflow\00", align 1
@.str.9 = private unnamed_addr constant [8 x i8] c"Clamped\00", align 1
@.str.10 = private unnamed_addr constant [8 x i8] c"Rounded\00", align 1
@.str.11 = private unnamed_addr constant [10 x i8] c"Subnormal\00", align 1
@.str.12 = private unnamed_addr constant [10 x i8] c"Underflow\00", align 1
@.str.13 = private unnamed_addr constant [10 x i8] c"No status\00", align 1

; Function Attrs: mustprogress nounwind uwtable
define ptr @uprv_decContextSetStatus_77(ptr noundef %0, i32 noundef %1) #0 {
  %3 = alloca ptr, align 8
  %4 = alloca i32, align 4
  store ptr %0, ptr %3, align 8, !tbaa !3
  store i32 %1, ptr %4, align 4, !tbaa !7
  %5 = load i32, ptr %4, align 4, !tbaa !7
  %6 = load ptr, ptr %3, align 8, !tbaa !3
  %7 = getelementptr inbounds nuw %struct.decContext, ptr %6, i32 0, i32 5
  %8 = load i32, ptr %7, align 4, !tbaa !9
  %9 = or i32 %8, %5
  store i32 %9, ptr %7, align 4, !tbaa !9
  %10 = load ptr, ptr %3, align 8, !tbaa !3
  ret ptr %10
}

; Function Attrs: mustprogress nounwind uwtable
define ptr @uprv_decContextSetStatusFromString_77(ptr noundef %0, ptr noundef %1) #0 {
  %3 = alloca ptr, align 8
  %4 = alloca ptr, align 8
  %5 = alloca ptr, align 8
  store ptr %0, ptr %4, align 8, !tbaa !3
  store ptr %1, ptr %5, align 8, !tbaa !19
  %6 = load ptr, ptr %5, align 8, !tbaa !19
  %7 = call i32 @strcmp(ptr noundef %6, ptr noundef @.str) #4
  %8 = icmp eq i32 %7, 0
  br i1 %8, label %9, label %12

9:                                                ; preds = %2
  %10 = load ptr, ptr %4, align 8, !tbaa !3
  %11 = call ptr @uprv_decContextSetStatus_77(ptr noundef %10, i32 noundef 1)
  store ptr %11, ptr %3, align 8
  br label %103

12:                                               ; preds = %2
  %13 = load ptr, ptr %5, align 8, !tbaa !19
  %14 = call i32 @strcmp(ptr noundef %13, ptr noundef @.str.1) #4
  %15 = icmp eq i32 %14, 0
  br i1 %15, label %16, label %19

16:                                               ; preds = %12
  %17 = load ptr, ptr %4, align 8, !tbaa !3
  %18 = call ptr @uprv_decContextSetStatus_77(ptr noundef %17, i32 noundef 2)
  store ptr %18, ptr %3, align 8
  br label %103

19:                                               ; preds = %12
  %20 = load ptr, ptr %5, align 8, !tbaa !19
  %21 = call i32 @strcmp(ptr noundef %20, ptr noundef @.str.2) #4
  %22 = icmp eq i32 %21, 0
  br i1 %22, label %23, label %26

23:                                               ; preds = %19
  %24 = load ptr, ptr %4, align 8, !tbaa !3
  %25 = call ptr @uprv_decContextSetStatus_77(ptr noundef %24, i32 noundef 4)
  store ptr %25, ptr %3, align 8
  br label %103

26:                                               ; preds = %19
  %27 = load ptr, ptr %5, align 8, !tbaa !19
  %28 = call i32 @strcmp(ptr noundef %27, ptr noundef @.str.3) #4
  %29 = icmp eq i32 %28, 0
  br i1 %29, label %30, label %33

30:                                               ; preds = %26
  %31 = load ptr, ptr %4, align 8, !tbaa !3
  %32 = call ptr @uprv_decContextSetStatus_77(ptr noundef %31, i32 noundef 8)
  store ptr %32, ptr %3, align 8
  br label %103

33:                                               ; preds = %26
  %34 = load ptr, ptr %5, align 8, !tbaa !19
  %35 = call i32 @strcmp(ptr noundef %34, ptr noundef @.str.4) #4
  %36 = icmp eq i32 %35, 0
  br i1 %36, label %37, label %40

37:                                               ; preds = %33
  %38 = load ptr, ptr %4, align 8, !tbaa !3
  %39 = call ptr @uprv_decContextSetStatus_77(ptr noundef %38, i32 noundef 32)
  store ptr %39, ptr %3, align 8
  br label %103

40:                                               ; preds = %33
  %41 = load ptr, ptr %5, align 8, !tbaa !19
  %42 = call i32 @strcmp(ptr noundef %41, ptr noundef @.str.5) #4
  %43 = icmp eq i32 %42, 0
  br i1 %43, label %44, label %47

44:                                               ; preds = %40
  %45 = load ptr, ptr %4, align 8, !tbaa !3
  %46 = call ptr @uprv_decContextSetStatus_77(ptr noundef %45, i32 noundef 16)
  store ptr %46, ptr %3, align 8
  br label %103

47:                                               ; preds = %40
  %48 = load ptr, ptr %5, align 8, !tbaa !19
  %49 = call i32 @strcmp(ptr noundef %48, ptr noundef @.str.6) #4
  %50 = icmp eq i32 %49, 0
  br i1 %50, label %51, label %54

51:                                               ; preds = %47
  %52 = load ptr, ptr %4, align 8, !tbaa !3
  %53 = call ptr @uprv_decContextSetStatus_77(ptr noundef %52, i32 noundef 64)
  store ptr %53, ptr %3, align 8
  br label %103

54:                                               ; preds = %47
  %55 = load ptr, ptr %5, align 8, !tbaa !19
  %56 = call i32 @strcmp(ptr noundef %55, ptr noundef @.str.7) #4
  %57 = icmp eq i32 %56, 0
  br i1 %57, label %58, label %61

58:                                               ; preds = %54
  %59 = load ptr, ptr %4, align 8, !tbaa !3
  %60 = call ptr @uprv_decContextSetStatus_77(ptr noundef %59, i32 noundef 128)
  store ptr %60, ptr %3, align 8
  br label %103

61:                                               ; preds = %54
  %62 = load ptr, ptr %5, align 8, !tbaa !19
  %63 = call i32 @strcmp(ptr noundef %62, ptr noundef @.str.8) #4
  %64 = icmp eq i32 %63, 0
  br i1 %64, label %65, label %68

65:                                               ; preds = %61
  %66 = load ptr, ptr %4, align 8, !tbaa !3
  %67 = call ptr @uprv_decContextSetStatus_77(ptr noundef %66, i32 noundef 512)
  store ptr %67, ptr %3, align 8
  br label %103

68:                                               ; preds = %61
  %69 = load ptr, ptr %5, align 8, !tbaa !19
  %70 = call i32 @strcmp(ptr noundef %69, ptr noundef @.str.9) #4
  %71 = icmp eq i32 %70, 0
  br i1 %71, label %72, label %75

72:                                               ; preds = %68
  %73 = load ptr, ptr %4, align 8, !tbaa !3
  %74 = call ptr @uprv_decContextSetStatus_77(ptr noundef %73, i32 noundef 1024)
  store ptr %74, ptr %3, align 8
  br label %103

75:                                               ; preds = %68
  %76 = load ptr, ptr %5, align 8, !tbaa !19
  %77 = call i32 @strcmp(ptr noundef %76, ptr noundef @.str.10) #4
  %78 = icmp eq i32 %77, 0
  br i1 %78, label %79, label %82

79:                                               ; preds = %75
  %80 = load ptr, ptr %4, align 8, !tbaa !3
  %81 = call ptr @uprv_decContextSetStatus_77(ptr noundef %80, i32 noundef 2048)
  store ptr %81, ptr %3, align 8
  br label %103

82:                                               ; preds = %75
  %83 = load ptr, ptr %5, align 8, !tbaa !19
  %84 = call i32 @strcmp(ptr noundef %83, ptr noundef @.str.11) #4
  %85 = icmp eq i32 %84, 0
  br i1 %85, label %86, label %89

86:                                               ; preds = %82
  %87 = load ptr, ptr %4, align 8, !tbaa !3
  %88 = call ptr @uprv_decContextSetStatus_77(ptr noundef %87, i32 noundef 4096)
  store ptr %88, ptr %3, align 8
  br label %103

89:                                               ; preds = %82
  %90 = load ptr, ptr %5, align 8, !tbaa !19
  %91 = call i32 @strcmp(ptr noundef %90, ptr noundef @.str.12) #4
  %92 = icmp eq i32 %91, 0
  br i1 %92, label %93, label %96

93:                                               ; preds = %89
  %94 = load ptr, ptr %4, align 8, !tbaa !3
  %95 = call ptr @uprv_decContextSetStatus_77(ptr noundef %94, i32 noundef 8192)
  store ptr %95, ptr %3, align 8
  br label %103

96:                                               ; preds = %89
  %97 = load ptr, ptr %5, align 8, !tbaa !19
  %98 = call i32 @strcmp(ptr noundef %97, ptr noundef @.str.13) #4
  %99 = icmp eq i32 %98, 0
  br i1 %99, label %100, label %102

100:                                              ; preds = %96
  %101 = load ptr, ptr %4, align 8, !tbaa !3
  store ptr %101, ptr %3, align 8
  br label %103

102:                                              ; preds = %96
  store ptr null, ptr %3, align 8
  br label %103

103:                                              ; preds = %102, %100, %93, %86, %79, %72, %65, %58, %51, %44, %37, %30, %23, %16, %9
  %104 = load ptr, ptr %3, align 8
  ret ptr %104
}