; Function Attrs: mustprogress nofree nounwind willreturn memory(argmem: readwrite) uwtable
define ptr @uprv_decContextSetStatusFromString_77(ptr noundef %0, ptr noundef readonly captures(none) %1) local_unnamed_addr #3 {
  %3 = tail call i32 @strcmp(ptr noundef nonnull dereferenceable(1) %1, ptr noundef nonnull dereferenceable(18) @.str) #7
  %4 = icmp eq i32 %3, 0
  br i1 %4, label %5, label %9

5:                                                ; preds = %2
  %6 = getelementptr inbounds nuw i8, ptr %0, i64 20
  %7 = load i32, ptr %6, align 4, !tbaa !3
  %8 = or i32 %7, 1
  store i32 %8, ptr %6, align 4, !tbaa !3
  br label %96

9:                                                ; preds = %2
  %10 = tail call i32 @strcmp(ptr noundef nonnull dereferenceable(1) %1, ptr noundef nonnull dereferenceable(17) @.str.1) #7
  %11 = icmp eq i32 %10, 0
  br i1 %11, label %12, label %16

12:                                               ; preds = %9
  %13 = getelementptr inbounds nuw i8, ptr %0, i64 20
  %14 = load i32, ptr %13, align 4, !tbaa !3
  %15 = or i32 %14, 2
  store i32 %15, ptr %13, align 4, !tbaa !3
  br label %96

16:                                               ; preds = %9
  %17 = tail call i32 @strcmp(ptr noundef nonnull dereferenceable(1) %1, ptr noundef nonnull dereferenceable(20) @.str.2) #7
  %18 = icmp eq i32 %17, 0
  br i1 %18, label %19, label %23

19:                                               ; preds = %16
  %20 = getelementptr inbounds nuw i8, ptr %0, i64 20
  %21 = load i32, ptr %20, align 4, !tbaa !3
  %22 = or i32 %21, 4
  store i32 %22, ptr %20, align 4, !tbaa !3
  br label %96

23:                                               ; preds = %16
  %24 = tail call i32 @strcmp(ptr noundef nonnull dereferenceable(1) %1, ptr noundef nonnull dereferenceable(19) @.str.3) #7
  %25 = icmp eq i32 %24, 0
  br i1 %25, label %26, label %30

26:                                               ; preds = %23
  %27 = getelementptr inbounds nuw i8, ptr %0, i64 20
  %28 = load i32, ptr %27, align 4, !tbaa !3
  %29 = or i32 %28, 8
  store i32 %29, ptr %27, align 4, !tbaa !3
  br label %96

30:                                               ; preds = %23
  %31 = tail call i32 @strcmp(ptr noundef nonnull dereferenceable(1) %1, ptr noundef nonnull dereferenceable(8) @.str.4) #7
  %32 = icmp eq i32 %31, 0
  br i1 %32, label %33, label %37

33:                                               ; preds = %30
  %34 = getelementptr inbounds nuw i8, ptr %0, i64 20
  %35 = load i32, ptr %34, align 4, !tbaa !3
  %36 = or i32 %35, 32
  store i32 %36, ptr %34, align 4, !tbaa !3
  br label %96

37:                                               ; preds = %30
  %38 = tail call i32 @strcmp(ptr noundef nonnull dereferenceable(1) %1, ptr noundef nonnull dereferenceable(21) @.str.5) #7
  %39 = icmp eq i32 %38, 0
  br i1 %39, label %40, label %44

40:                                               ; preds = %37
  %41 = getelementptr inbounds nuw i8, ptr %0, i64 20
  %42 = load i32, ptr %41, align 4, !tbaa !3
  %43 = or i32 %42, 16
  store i32 %43, ptr %41, align 4, !tbaa !3
  br label %96

44:                                               ; preds = %37
  %45 = tail call i32 @strcmp(ptr noundef nonnull dereferenceable(1) %1, ptr noundef nonnull dereferenceable(16) @.str.6) #7
  %46 = icmp eq i32 %45, 0
  br i1 %46, label %47, label %51

47:                                               ; preds = %44
  %48 = getelementptr inbounds nuw i8, ptr %0, i64 20
  %49 = load i32, ptr %48, align 4, !tbaa !3
  %50 = or i32 %49, 64
  store i32 %50, ptr %48, align 4, !tbaa !3
  br label %96

51:                                               ; preds = %44
  %52 = tail call i32 @strcmp(ptr noundef nonnull dereferenceable(1) %1, ptr noundef nonnull dereferenceable(18) @.str.7) #7
  %53 = icmp eq i32 %52, 0
  br i1 %53, label %54, label %58

54:                                               ; preds = %51
  %55 = getelementptr inbounds nuw i8, ptr %0, i64 20
  %56 = load i32, ptr %55, align 4, !tbaa !3
  %57 = or i32 %56, 128
  store i32 %57, ptr %55, align 4, !tbaa !3
  br label %96

58:                                               ; preds = %51
  %59 = tail call i32 @strcmp(ptr noundef nonnull dereferenceable(1) %1, ptr noundef nonnull dereferenceable(9) @.str.8) #7
  %60 = icmp eq i32 %59, 0
  br i1 %60, label %61, label %65

61:                                               ; preds = %58
  %62 = getelementptr inbounds nuw i8, ptr %0, i64 20
  %63 = load i32, ptr %62, align 4, !tbaa !3
  %64 = or i32 %63, 512
  store i32 %64, ptr %62, align 4, !tbaa !3
  br label %96

65:                                               ; preds = %58
  %66 = tail call i32 @strcmp(ptr noundef nonnull dereferenceable(1) %1, ptr noundef nonnull dereferenceable(8) @.str.9) #7
  %67 = icmp eq i32 %66, 0
  br i1 %67, label %68, label %72

68:                                               ; preds = %65
  %69 = getelementptr inbounds nuw i8, ptr %0, i64 20
  %70 = load i32, ptr %69, align 4, !tbaa !3
  %71 = or i32 %70, 1024
  store i32 %71, ptr %69, align 4, !tbaa !3
  br label %96

72:                                               ; preds = %65
  %73 = tail call i32 @strcmp(ptr noundef nonnull dereferenceable(1) %1, ptr noundef nonnull dereferenceable(8) @.str.10) #7
  %74 = icmp eq i32 %73, 0
  br i1 %74, label %75, label %79

75:                                               ; preds = %72
  %76 = getelementptr inbounds nuw i8, ptr %0, i64 20
  %77 = load i32, ptr %76, align 4, !tbaa !3
  %78 = or i32 %77, 2048
  store i32 %78, ptr %76, align 4, !tbaa !3
  br label %96

79:                                               ; preds = %72
  %80 = tail call i32 @strcmp(ptr noundef nonnull dereferenceable(1) %1, ptr noundef nonnull dereferenceable(10) @.str.11) #7
  %81 = icmp eq i32 %80, 0
  br i1 %81, label %82, label %86

82:                                               ; preds = %79
  %83 = getelementptr inbounds nuw i8, ptr %0, i64 20
  %84 = load i32, ptr %83, align 4, !tbaa !3
  %85 = or i32 %84, 4096
  store i32 %85, ptr %83, align 4, !tbaa !3
  br label %96

86:                                               ; preds = %79
  %87 = tail call i32 @strcmp(ptr noundef nonnull dereferenceable(1) %1, ptr noundef nonnull dereferenceable(10) @.str.12) #7
  %88 = icmp eq i32 %87, 0
  br i1 %88, label %89, label %93

89:                                               ; preds = %86
  %90 = getelementptr inbounds nuw i8, ptr %0, i64 20
  %91 = load i32, ptr %90, align 4, !tbaa !3
  %92 = or i32 %91, 8192
  store i32 %92, ptr %90, align 4, !tbaa !3
  br label %96

93:                                               ; preds = %86
  %94 = tail call i32 @strcmp(ptr noundef nonnull dereferenceable(1) %1, ptr noundef nonnull dereferenceable(10) @.str.13) #7
  %95 = icmp eq i32 %94, 0
  %. = select i1 %95, ptr %0, ptr null
  br label %96

96:                                               ; preds = %93, %89, %82, %75, %68, %61, %54, %47, %40, %33, %26, %19, %12, %5
  %.0 = phi ptr [ %0, %5 ], [ %0, %12 ], [ %0, %19 ], [ %0, %26 ], [ %0, %33 ], [ %0, %40 ], [ %0, %47 ], [ %0, %54 ], [ %0, %61 ], [ %0, %68 ], [ %0, %75 ], [ %0, %82 ], [ %0, %89 ], [ %., %93 ]
  ret ptr %.0
}